target datalayout = "e-m:e-p270:32:32-p271:32:32-p272:64:64-i64:64-i128:128-f80:128-n8:16:32:64-S128"
target triple = "x86_64-unknown-linux-gnu"

%struct.mz_zip_archive = type { i64, i64, i32, i32, i32, i32, i64, ptr, ptr, ptr, ptr, ptr, ptr, ptr, ptr, ptr }
%struct.mz_zip_internal_state_tag = type { %struct.mz_zip_array, %struct.mz_zip_array, %struct.mz_zip_array, i32, i32, i32, ptr, i64, ptr, i64, i64 }
%struct.mz_zip_array = type { ptr, i64, i64, i32 }

; Function Attrs: nounwind uwtable
define hidden i32 @mz_zip_reader_end(ptr noundef %pZip) #0 {
entry:
  %pZip.addr.i20 = alloca ptr, align 8
  %pArray.addr.i21 = alloca ptr, align 8
  %pZip.addr.i16 = alloca ptr, align 8
  %pArray.addr.i17 = alloca ptr, align 8
  %pZip.addr.i = alloca ptr, align 8
  %pArray.addr.i = alloca ptr, align 8
  %retval = alloca i32, align 4
  %pZip.addr = alloca ptr, align 8
  %pState = alloca ptr, align 8
  store ptr %pZip, ptr %pZip.addr, align 8
  %0 = load ptr, ptr %pZip.addr, align 8
  %tobool = icmp ne ptr %0, null
  br i1 %tobool, label %lor.lhs.false, label %if.then

lor.lhs.false:                                    ; preds = %entry
  %1 = load ptr, ptr %pZip.addr, align 8
  %m_pState = getelementptr inbounds %struct.mz_zip_archive, ptr %1, i32 0, i32 15
  %2 = load ptr, ptr %m_pState, align 8
  %tobool1 = icmp ne ptr %2, null
  br i1 %tobool1, label %lor.lhs.false2, label %if.then

lor.lhs.false2:                                   ; preds = %lor.lhs.false
  %3 = load ptr, ptr %pZip.addr, align 8
  %m_pAlloc = getelementptr inbounds %struct.mz_zip_archive, ptr %3, i32 0, i32 7
  %4 = load ptr, ptr %m_pAlloc, align 8
  %tobool3 = icmp ne ptr %4, null
  br i1 %tobool3, label %lor.lhs.false4, label %if.then

lor.lhs.false4:                                   ; preds = %lor.lhs.false2
  %5 = load ptr, ptr %pZip.addr, align 8
  %m_pFree = getelementptr inbounds %struct.mz_zip_archive, ptr %5, i32 0, i32 8
  %6 = load ptr, ptr %m_pFree, align 8
  %tobool5 = icmp ne ptr %6, null
  br i1 %tobool5, label %lor.lhs.false6, label %if.then

lor.lhs.false6:                                   ; preds = %lor.lhs.false4
  %7 = load ptr, ptr %pZip.addr, align 8
  %m_zip_mode = getelementptr inbounds %struct.mz_zip_archive, ptr %7, i32 0, i32 3
  %8 = load i32, ptr %m_zip_mode, align 4
  %cmp = icmp ne i32 %8, 1
  br i1 %cmp, label %if.then, label %if.end

if.then:                                          ; preds = %lor.lhs.false6, %lor.lhs.false4, %lor.lhs.false2, %lor.lhs.false, %entry
  store i32 0, ptr %retval, align 4
  br label %return

if.end:                                           ; preds = %lor.lhs.false6
  %9 = load ptr, ptr %pZip.addr, align 8
  %m_pState7 = getelementptr inbounds %struct.mz_zip_archive, ptr %9, i32 0, i32 15
  %10 = load ptr, ptr %m_pState7, align 8
  store ptr %10, ptr %pState, align 8
  %11 = load ptr, ptr %pZip.addr, align 8
  %m_pState8 = getelementptr inbounds %struct.mz_zip_archive, ptr %11, i32 0, i32 15
  store ptr null, ptr %m_pState8, align 8
  %12 = load ptr, ptr %pZip.addr, align 8
  %13 = load ptr, ptr %pState, align 8
  %m_central_dir = getelementptr inbounds %struct.mz_zip_internal_state_tag, ptr %13, i32 0, i32 0
  store ptr %12, ptr %pZip.addr.i20, align 8
  store ptr %m_central_dir, ptr %pArray.addr.i21, align 8
  %14 = load ptr, ptr %pZip.addr.i20, align 8
  %m_pFree.i22 = getelementptr inbounds %struct.mz_zip_archive, ptr %14, i32 0, i32 8
  %15 = load ptr, ptr %m_pFree.i22, align 8
  %16 = load ptr, ptr %pZip.addr.i20, align 8
  %m_pAlloc_opaque.i23 = getelementptr inbounds %struct.mz_zip_archive, ptr %16, i32 0, i32 10
  %17 = load ptr, ptr %m_pAlloc_opaque.i23, align 8
  %18 = load ptr, ptr %pArray.addr.i21, align 8
  %19 = load ptr, ptr %18, align 8
  call void %15(ptr noundef %17, ptr noundef %19) #10
  %20 = load ptr, ptr %pArray.addr.i21, align 8
  call void @llvm.memset.p0.i64(ptr align 8 %20, i8 0, i64 32, i1 false)
  %21 = load ptr, ptr %pZip.addr, align 8
  %22 = load ptr, ptr %pState, align 8
  %m_central_dir_offsets = getelementptr inbounds %struct.mz_zip_internal_state_tag, ptr %22, i32 0, i32 1
  store ptr %21, ptr %pZip.addr.i16, align 8
  store ptr %m_central_dir_offsets, ptr %pArray.addr.i17, align 8
  %23 = load ptr, ptr %pZip.addr.i16, align 8
  %m_pFree.i18 = getelementptr inbounds %struct.mz_zip_archive, ptr %23, i32 0, i32 8
  %24 = load ptr, ptr %m_pFree.i18, align 8
  %25 = load ptr, ptr %pZip.addr.i16, align 8
  %m_pAlloc_opaque.i19 = getelementptr inbounds %struct.mz_zip_archive, ptr %25, i32 0, i32 10
  %26 = load ptr, ptr %m_pAlloc_opaque.i19, align 8
  %27 = load ptr, ptr %pArray.addr.i17, align 8
  %28 = load ptr, ptr %27, align 8
  call void %24(ptr noundef %26, ptr noundef %28) #10
  %29 = load ptr, ptr %pArray.addr.i17, align 8
  call void @llvm.memset.p0.i64(ptr align 8 %29, i8 0, i64 32, i1 false)
  %30 = load ptr, ptr %pZip.addr, align 8
  %31 = load ptr, ptr %pState, align 8
  %m_sorted_central_dir_offsets = getelementptr inbounds %struct.mz_zip_internal_state_tag, ptr %31, i32 0, i32 2
  store ptr %30, ptr %pZip.addr.i, align 8
  store ptr %m_sorted_central_dir_offsets, ptr %pArray.addr.i, align 8
  %32 = load ptr, ptr %pZip.addr.i, align 8
  %m_pFree.i = getelementptr inbounds %struct.mz_zip_archive, ptr %32, i32 0, i32 8
  %33 = load ptr, ptr %m_pFree.i, align 8
  %34 = load ptr, ptr %pZip.addr.i, align 8
  %m_pAlloc_opaque.i = getelementptr inbounds %struct.mz_zip_archive, ptr %34, i32 0, i32 10
  %35 = load ptr, ptr %m_pAlloc_opaque.i, align 8
  %36 = load ptr, ptr %pArray.addr.i, align 8
  %37 = load ptr, ptr %36, align 8
  call void %33(ptr noundef %35, ptr noundef %37) #10
  %38 = load ptr, ptr %pArray.addr.i, align 8
  call void @llvm.memset.p0.i64(ptr align 8 %38, i8 0, i64 32, i1 false)
  %39 = load ptr, ptr %pState, align 8
  %m_pFile = getelementptr inbounds %struct.mz_zip_internal_state_tag, ptr %39, i32 0, i32 6
  %40 = load ptr, ptr %m_pFile, align 8
  %tobool9 = icmp ne ptr %40, null
  br i1 %tobool9, label %if.then10, label %if.end13

if.then10:                                        ; preds = %if.end
  %41 = load ptr, ptr %pState, align 8
  %m_pFile11 = getelementptr inbounds %struct.mz_zip_internal_state_tag, ptr %41, i32 0, i32 6
  %42 = load ptr, ptr %m_pFile11, align 8
  %call = call i32 @fclose(ptr noundef %42)
  %43 = load ptr, ptr %pState, align 8
  %m_pFile12 = getelementptr inbounds %struct.mz_zip_internal_state_tag, ptr %43, i32 0, i32 6
  store ptr null, ptr %m_pFile12, align 8
  br label %if.end13

if.end13:                                         ; preds = %if.then10, %if.end
  %44 = load ptr, ptr %pZip.addr, align 8
  %m_pFree14 = getelementptr inbounds %struct.mz_zip_archive, ptr %44, i32 0, i32 8
  %45 = load ptr, ptr %m_pFree14, align 8
  %46 = load ptr, ptr %pZip.addr, align 8
  %m_pAlloc_opaque = getelementptr inbounds %struct.mz_zip_archive, ptr %46, i32 0, i32 10
  %47 = load ptr, ptr %m_pAlloc_opaque, align 8
  %48 = load ptr, ptr %pState, align 8
  call void %45(ptr noundef %47, ptr noundef %48)
  %49 = load ptr, ptr %pZip.addr, align 8
  %m_zip_mode15 = getelementptr inbounds %struct.mz_zip_archive, ptr %49, i32 0, i32 3
  store i32 0, ptr %m_zip_mode15, align 4
  store i32 1, ptr %retval, align 4
  br label %return

return:                                           ; preds = %if.end13, %if.then
  %50 = load i32, ptr %retval, align 4
  ret i32 %50
}