; Function Attrs: nounwind uwtable
define hidden range(i32 0, 2) i32 @mz_zip_reader_end(ptr noundef %pZip) local_unnamed_addr #4 {
entry:
  %tobool.not = icmp eq ptr %pZip, null
  br i1 %tobool.not, label %return, label %lor.lhs.false

lor.lhs.false:                                    ; preds = %entry
  %m_pState = getelementptr inbounds nuw i8, ptr %pZip, i64 104
  %0 = load ptr, ptr %m_pState, align 8
  %tobool1.not = icmp eq ptr %0, null
  br i1 %tobool1.not, label %return, label %lor.lhs.false2

lor.lhs.false2:                                   ; preds = %lor.lhs.false
  %m_pAlloc = getelementptr inbounds nuw i8, ptr %pZip, i64 40
  %1 = load ptr, ptr %m_pAlloc, align 8
  %tobool3.not = icmp eq ptr %1, null
  br i1 %tobool3.not, label %return, label %lor.lhs.false4

lor.lhs.false4:                                   ; preds = %lor.lhs.false2
  %m_pFree = getelementptr inbounds nuw i8, ptr %pZip, i64 48
  %2 = load ptr, ptr %m_pFree, align 8
  %tobool5.not = icmp eq ptr %2, null
  br i1 %tobool5.not, label %return, label %lor.lhs.false6

lor.lhs.false6:                                   ; preds = %lor.lhs.false4
  %m_zip_mode = getelementptr inbounds nuw i8, ptr %pZip, i64 20
  %3 = load i32, ptr %m_zip_mode, align 4
  %cmp.not = icmp eq i32 %3, 1
  br i1 %cmp.not, label %if.end, label %return

if.end:                                           ; preds = %lor.lhs.false6
  store ptr null, ptr %m_pState, align 8
  %m_pAlloc_opaque.i23 = getelementptr inbounds nuw i8, ptr %pZip, i64 64
  %4 = load ptr, ptr %m_pAlloc_opaque.i23, align 8
  %5 = load ptr, ptr %0, align 8
  tail call void %2(ptr noundef %4, ptr noundef %5) #30
  tail call void @llvm.memset.p0.i64(ptr noundef nonnull align 8 dereferenceable(32) %0, i8 0, i64 32, i1 false)
  %m_central_dir_offsets = getelementptr inbounds nuw i8, ptr %0, i64 32
  %6 = load ptr, ptr %m_pFree, align 8
  %7 = load ptr, ptr %m_pAlloc_opaque.i23, align 8
  %8 = load ptr, ptr %m_central_dir_offsets, align 8
  tail call void %6(ptr noundef %7, ptr noundef %8) #30
  tail call void @llvm.memset.p0.i64(ptr noundef nonnull align 8 dereferenceable(32) %m_central_dir_offsets, i8 0, i64 32, i1 false)
  %m_sorted_central_dir_offsets = getelementptr inbounds nuw i8, ptr %0, i64 64
  %9 = load ptr, ptr %m_pFree, align 8
  %10 = load ptr, ptr %m_pAlloc_opaque.i23, align 8
  %11 = load ptr, ptr %m_sorted_central_dir_offsets, align 8
  tail call void %9(ptr noundef %10, ptr noundef %11) #30
  tail call void @llvm.memset.p0.i64(ptr noundef nonnull align 8 dereferenceable(32) %m_sorted_central_dir_offsets, i8 0, i64 32, i1 false)
  %m_pFile = getelementptr inbounds nuw i8, ptr %0, i64 112
  %12 = load ptr, ptr %m_pFile, align 8
  %tobool9.not = icmp eq ptr %12, null
  br i1 %tobool9.not, label %if.end13, label %if.then10

if.then10:                                        ; preds = %if.end
  %call = tail call i32 @fclose(ptr noundef nonnull %12)
  store ptr null, ptr %m_pFile, align 8
  br label %if.end13

if.end13:                                         ; preds = %if.then10, %if.end
  %13 = load ptr, ptr %m_pFree, align 8
  %14 = load ptr, ptr %m_pAlloc_opaque.i23, align 8
  tail call void %13(ptr noundef %14, ptr noundef nonnull %0) #30
  store i32 0, ptr %m_zip_mode, align 4
  br label %return

return:                                           ; preds = %entry, %lor.lhs.false, %lor.lhs.false2, %lor.lhs.false4, %lor.lhs.false6, %if.end13
  %retval.0 = phi i32 [ 1, %if.end13 ], [ 0, %lor.lhs.false6 ], [ 0, %lor.lhs.false4 ], [ 0, %lor.lhs.false2 ], [ 0, %lor.lhs.false ], [ 0, %entry ]
  ret i32 %retval.0
}